(dp0
I0
(lp1
S'james'
p2
aI999012451
aS'12-a'
p3
aS'Gd-169 delhi'
p4
asI1
(lp5
S'1'
p6
aI0
aS'0'
p7
ag7
asI2
(lp8
S'john'
p9
aL23123123231L
aS'11a'
p10
aS'cd 1223'
p11
asI3
(lp12
S'john tata'
p13
aI23423545
aS'9a'
p14
aS' vijawada,andhra ,India'
p15
as.